; Function Attrs: mustprogress nounwind uwtable
define internal void @"_ZNSt17_Function_handlerIFvRSt6vectorIhSaIhEEEZN4LIEF5MachO14SegmentCommand7contentES2_E3$_0E9_M_invokeERKSt9_Any_dataS3_"(ptr noundef nonnull readonly align 8 captures(none) dereferenceable(16) %0, ptr noundef nonnull align 8 captures(none) dereferenceable(24) initializes((8, 16)) %1) #0 align 2 {
  %.val = load ptr, ptr %0, align 8, !tbaa !101
  %3 = load ptr, ptr %1, align 8, !tbaa !49
  %4 = getelementptr inbounds nuw i8, ptr %1, i64 8
  %5 = getelementptr inbounds nuw i8, ptr %1, i64 16
  %6 = load ptr, ptr %5, align 8, !tbaa !50
  %7 = load ptr, ptr %.val, align 8, !tbaa !49
  store ptr %7, ptr %1, align 8, !tbaa !49
  %8 = getelementptr inbounds nuw i8, ptr %.val, i64 8
  %9 = load ptr, ptr %8, align 8, !tbaa !52
  store ptr %9, ptr %4, align 8, !tbaa !52
  %10 = getelementptr inbounds nuw i8, ptr %.val, i64 16
  %11 = load ptr, ptr %10, align 8, !tbaa !50
  store ptr %11, ptr %5, align 8, !tbaa !50
  %.not.i.i.i.i.i.i.i.i = icmp eq ptr %3, null
  tail call void @llvm.memset.p0.i64(ptr noundef nonnull align 8 dereferenceable(24) %.val, i8 0, i64 24, i1 false)
  br i1 %.not.i.i.i.i.i.i.i.i, label %"_ZSt10__invoke_rIvRZN4LIEF5MachO14SegmentCommand7contentESt6vectorIhSaIhEEE3$_0JRS5_EENSt9enable_ifIX16is_invocable_r_vIT_T0_DpT1_EESA_E4typeEOSB_DpOSC_.exit", label %12

12:                                               ; preds = %2
  %13 = ptrtoint ptr %6 to i64
  %14 = ptrtoint ptr %3 to i64
  %15 = sub i64 %13, %14
  tail call void @_ZdlPvm(ptr noundef nonnull %3, i64 noundef %15) #25
  br label %"_ZSt10__invoke_rIvRZN4LIEF5MachO14SegmentCommand7contentESt6vectorIhSaIhEEE3$_0JRS5_EENSt9enable_ifIX16is_invocable_r_vIT_T0_DpT1_EESA_E4typeEOSB_DpOSC_.exit"

"_ZSt10__invoke_rIvRZN4LIEF5MachO14SegmentCommand7contentESt6vectorIhSaIhEEE3$_0JRS5_EENSt9enable_ifIX16is_invocable_r_vIT_T0_DpT1_EESA_E4typeEOSB_DpOSC_.exit": ; preds = %2, %12
  ret void
}